target datalayout = "e-m:e-p270:32:32-p271:32:32-p272:64:64-i64:64-i128:128-f80:128-n8:16:32:64-S128"
target triple = "x86_64-pc-linux-gnu"

%struct._object = type { %union.anon, ptr }
%union.anon = type { i64 }
%struct._callback_context = type { ptr, ptr, ptr }
%struct.anon = type { i32, i32 }

@.str.74 = private unnamed_addr constant [39 x i8] c"user-defined function raised exception\00", align 1

; Function Attrs: alwaysinline nounwind uwtable
define internal i32 @_Py_IsImmortal(ptr noundef %0) #5 {
  %2 = alloca ptr, align 8
  store ptr %0, ptr %2, align 8, !tbaa !22
  %3 = load ptr, ptr %2, align 8, !tbaa !22
  %4 = getelementptr inbounds nuw %struct._object, ptr %3, i32 0, i32 0
  %5 = getelementptr inbounds nuw %struct.anon, ptr %4, i32 0, i32 0
  %6 = load i32, ptr %5, align 8, !tbaa !65
  %7 = icmp slt i32 %6, 0
  %8 = zext i1 %7 to i32
  ret i32 %8
}

; Function Attrs: alwaysinline nounwind uwtable
define internal void @Py_DECREF(ptr noundef %0) #5 {
  %2 = alloca ptr, align 8
  store ptr %0, ptr %2, align 8, !tbaa !22
  %3 = load ptr, ptr %2, align 8, !tbaa !22
  %4 = call i32 @_Py_IsImmortal(ptr noundef %3)
  %5 = icmp ne i32 %4, 0
  br i1 %5, label %6, label %7

6:                                                ; preds = %1
  br label %16

7:                                                ; preds = %1
  %8 = load ptr, ptr %2, align 8, !tbaa !22
  %9 = getelementptr inbounds nuw %struct._object, ptr %8, i32 0, i32 0
  %10 = getelementptr inbounds nuw %struct.anon, ptr %9, i32 0, i32 0
  %11 = load i32, ptr %10, align 8, !tbaa !65
  %12 = add i32 %11, -1
  store i32 %12, ptr %10, align 8, !tbaa !65
  %13 = icmp eq i32 %12, 0
  br i1 %13, label %14, label %16

14:                                               ; preds = %7
  %15 = load ptr, ptr %2, align 8, !tbaa !22
  call void @_Py_Dealloc(ptr noundef %15)
  br label %16

16:                                               ; preds = %6, %14, %7
  ret void
}

; Function Attrs: nounwind uwtable
define internal void @func_callback(ptr noundef %0, i32 noundef %1, ptr noundef %2) #0 {
  %4 = alloca ptr, align 8
  %5 = alloca i32, align 4
  %6 = alloca ptr, align 8
  %7 = alloca i32, align 4
  %8 = alloca ptr, align 8
  %9 = alloca ptr, align 8
  %10 = alloca i32, align 4
  %11 = alloca ptr, align 8
  store ptr %0, ptr %4, align 8, !tbaa !83
  store i32 %1, ptr %5, align 4, !tbaa !30
  store ptr %2, ptr %6, align 8, !tbaa !85
  call void @llvm.lifetime.start.p0(i64 4, ptr %7) #8
  %12 = call i32 @PyGILState_Ensure()
  store i32 %12, ptr %7, align 4, !tbaa !30
  call void @llvm.lifetime.start.p0(i64 8, ptr %8) #8
  call void @llvm.lifetime.start.p0(i64 8, ptr %9) #8
  store ptr null, ptr %9, align 8, !tbaa !22
  call void @llvm.lifetime.start.p0(i64 4, ptr %10) #8
  %13 = load ptr, ptr %4, align 8, !tbaa !83
  %14 = load i32, ptr %5, align 4, !tbaa !30
  %15 = load ptr, ptr %6, align 8, !tbaa !85
  %16 = call ptr @_pysqlite_build_py_params(ptr noundef %13, i32 noundef %14, ptr noundef %15)
  store ptr %16, ptr %8, align 8, !tbaa !22
  %17 = load ptr, ptr %8, align 8, !tbaa !22
  %18 = icmp ne ptr %17, null
  br i1 %18, label %19, label %28

19:                                               ; preds = %3
  call void @llvm.lifetime.start.p0(i64 8, ptr %11) #8
  %20 = load ptr, ptr %4, align 8, !tbaa !83
  %21 = call ptr @sqlite3_user_data(ptr noundef %20)
  store ptr %21, ptr %11, align 8, !tbaa !64
  %22 = load ptr, ptr %11, align 8, !tbaa !64
  %23 = getelementptr inbounds nuw %struct._callback_context, ptr %22, i32 0, i32 0
  %24 = load ptr, ptr %23, align 8, !tbaa !51
  %25 = load ptr, ptr %8, align 8, !tbaa !22
  %26 = call ptr @PyObject_CallObject(ptr noundef %24, ptr noundef %25)
  store ptr %26, ptr %9, align 8, !tbaa !22
  %27 = load ptr, ptr %8, align 8, !tbaa !22
  call void @Py_DECREF(ptr noundef %27)
  call void @llvm.lifetime.end.p0(i64 8, ptr %11) #8
  br label %28

28:                                               ; preds = %19, %3
  store i32 0, ptr %10, align 4, !tbaa !30
  %29 = load ptr, ptr %9, align 8, !tbaa !22
  %30 = icmp ne ptr %29, null
  br i1 %30, label %31, label %38

31:                                               ; preds = %28
  %32 = load ptr, ptr %4, align 8, !tbaa !83
  %33 = load ptr, ptr %9, align 8, !tbaa !22
  %34 = call i32 @_pysqlite_set_result(ptr noundef %32, ptr noundef %33)
  %35 = icmp eq i32 %34, 0
  %36 = zext i1 %35 to i32
  store i32 %36, ptr %10, align 4, !tbaa !30
  %37 = load ptr, ptr %9, align 8, !tbaa !22
  call void @Py_DECREF(ptr noundef %37)
  br label %38

38:                                               ; preds = %31, %28
  %39 = load i32, ptr %10, align 4, !tbaa !30
  %40 = icmp ne i32 %39, 0
  br i1 %40, label %43, label %41

41:                                               ; preds = %38
  %42 = load ptr, ptr %4, align 8, !tbaa !83
  call void @set_sqlite_error(ptr noundef %42, ptr noundef @.str.74)
  br label %43

43:                                               ; preds = %41, %38
  %44 = load i32, ptr %7, align 4, !tbaa !30
  call void @PyGILState_Release(i32 noundef %44)
  call void @llvm.lifetime.end.p0(i64 4, ptr %10) #8
  call void @llvm.lifetime.end.p0(i64 8, ptr %9) #8
  call void @llvm.lifetime.end.p0(i64 8, ptr %8) #8
  call void @llvm.lifetime.end.p0(i64 4, ptr %7) #8
  ret void
}