; Function Attrs: nounwind uwtable
define internal void @func_callback(ptr noundef %0, i32 noundef %1, ptr noundef readonly captures(none) %2) #0 {
  %4 = tail call i32 @PyGILState_Ensure() #7
  %5 = tail call fastcc ptr @_pysqlite_build_py_params(ptr noundef %0, i32 noundef %1, ptr noundef %2)
  %.not = icmp eq ptr %5, null
  br i1 %.not, label %.critedge, label %6

6:                                                ; preds = %3
  %7 = tail call ptr @sqlite3_user_data(ptr noundef %0) #7
  %8 = load ptr, ptr %7, align 8, !tbaa !77
  %9 = tail call ptr @PyObject_CallObject(ptr noundef %8, ptr noundef nonnull %5) #7
  %10 = load i32, ptr %5, align 8, !tbaa !34
  %.not.i18 = icmp sgt i32 %10, -1
  br i1 %.not.i18, label %11, label %Py_DECREF.exit19

11:                                               ; preds = %6
  %12 = add nsw i32 %10, -1
  store i32 %12, ptr %5, align 8, !tbaa !34
  %13 = icmp eq i32 %12, 0
  br i1 %13, label %14, label %Py_DECREF.exit19

14:                                               ; preds = %11
  tail call void @_Py_Dealloc(ptr noundef nonnull %5) #7
  br label %Py_DECREF.exit19

Py_DECREF.exit19:                                 ; preds = %14, %11, %6
  %.not16 = icmp eq ptr %9, null
  br i1 %.not16, label %.critedge, label %15

15:                                               ; preds = %Py_DECREF.exit19
  %16 = tail call fastcc i32 @_pysqlite_set_result(ptr noundef %0, ptr noundef %9)
  %.not23 = icmp eq i32 %16, 0
  %17 = load i32, ptr %9, align 8, !tbaa !34
  %.not.i = icmp sgt i32 %17, -1
  br i1 %.not.i, label %18, label %Py_DECREF.exit

18:                                               ; preds = %15
  %19 = add nsw i32 %17, -1
  store i32 %19, ptr %9, align 8, !tbaa !34
  %20 = icmp eq i32 %19, 0
  br i1 %20, label %21, label %Py_DECREF.exit

21:                                               ; preds = %18
  tail call void @_Py_Dealloc(ptr noundef nonnull %9) #7
  br label %Py_DECREF.exit

Py_DECREF.exit:                                   ; preds = %15, %18, %21
  br i1 %.not23, label %22, label %.critedge

.critedge:                                        ; preds = %3, %Py_DECREF.exit19, %Py_DECREF.exit
  tail call fastcc void @set_sqlite_error(ptr noundef %0, ptr noundef nonnull @.str.74)
  br label %22

22:                                               ; preds = %.critedge, %Py_DECREF.exit
  tail call void @PyGILState_Release(i32 noundef %4) #7
  ret void
}